target datalayout = "e-m:e-p270:32:32-p271:32:32-p272:64:64-i64:64-i128:128-f80:128-n8:16:32:64-S128"
target triple = "x86_64-pc-linux-gnu"

%struct.darktable_t = type { %struct.dt_codepath_t, i32, i32, ptr, ptr, ptr, ptr, ptr, ptr, ptr, ptr, ptr, ptr, ptr, ptr, ptr, ptr, ptr, ptr, ptr, ptr, ptr, ptr, ptr, ptr, ptr, ptr, ptr, ptr, ptr, [64 x %struct.dt_pthread_mutex_t], %struct.dt_pthread_mutex_t, %struct.dt_pthread_mutex_t, %struct.dt_pthread_mutex_t, %struct.dt_pthread_mutex_t, %struct.dt_pthread_mutex_t, ptr, ptr, ptr, ptr, ptr, ptr, ptr, ptr, ptr, ptr, ptr, ptr, ptr, %struct.dt_lua_state_t, ptr, double, ptr, i32, [47 x i32], i32, i32, ptr, ptr, %struct.dt_sys_resources_t, %struct.dt_backthumb_t, %struct.dt_gimp_t }
%struct.dt_codepath_t = type { i8, [3 x i8] }
%struct.dt_pthread_mutex_t = type { %union.pthread_mutex_t }
%union.pthread_mutex_t = type { %struct.__pthread_mutex_s }
%struct.__pthread_mutex_s = type { i32, i32, i32, i32, i32, i16, i16, %struct.__pthread_internal_list }
%struct.__pthread_internal_list = type { ptr, ptr }
%struct.dt_lua_state_t = type { i32 }
%struct.dt_sys_resources_t = type { i64, i64, ptr, ptr, i32 }
%struct.dt_backthumb_t = type { double, double, i32, i32, i32, i32 }
%struct.dt_gimp_t = type { i32, ptr, ptr, i32, i32 }

@darktable = external global %struct.darktable_t, align 8
@.str.88 = private unnamed_addr constant [7 x i8] c"themes\00", align 1
@.str.89 = private unnamed_addr constant [28 x i8] c"adding themes directory: %s\00", align 1

; Function Attrs: nounwind uwtable
define internal void @load_themes_dir(ptr noundef %0) #0 {
  %2 = alloca ptr, align 8
  %3 = alloca ptr, align 8
  %4 = alloca ptr, align 8
  %5 = alloca ptr, align 8
  store ptr %0, ptr %2, align 8, !tbaa !73
  call void @llvm.lifetime.start.p0(i64 8, ptr %3) #10
  %6 = load ptr, ptr %2, align 8, !tbaa !73
  %7 = call noalias ptr (ptr, ...) @g_build_filename(ptr noundef %6, ptr noundef @.str.88, ptr noundef null)
  store ptr %7, ptr %3, align 8, !tbaa !73
  call void @llvm.lifetime.start.p0(i64 8, ptr %4) #10
  %8 = load ptr, ptr %3, align 8, !tbaa !73
  %9 = call ptr @g_dir_open(ptr noundef %8, i32 noundef 0, ptr noundef null)
  store ptr %9, ptr %4, align 8, !tbaa !131
  %10 = load ptr, ptr %4, align 8, !tbaa !131
  %11 = icmp ne ptr %10, null
  br i1 %11, label %12, label %38

12:                                               ; preds = %1
  br label %13

13:                                               ; preds = %12
  %14 = load i32, ptr getelementptr inbounds nuw (%struct.darktable_t, ptr @darktable, i32 0, i32 2), align 8, !tbaa !82
  %15 = and i32 4, %14
  %16 = icmp ne i32 %15, 0
  br i1 %16, label %17, label %24

17:                                               ; preds = %13
  %18 = load i32, ptr getelementptr inbounds nuw (%struct.darktable_t, ptr @darktable, i32 0, i32 2), align 8, !tbaa !82
  %19 = xor i32 %18, -1
  %20 = and i32 0, %19
  %21 = icmp ne i32 %20, 0
  br i1 %21, label %24, label %22

22:                                               ; preds = %17
  %23 = load ptr, ptr %3, align 8, !tbaa !73
  call void (ptr, ...) @dt_print_ext(ptr noundef @.str.89, ptr noundef %23)
  br label %24

24:                                               ; preds = %22, %17, %13
  br label %25

25:                                               ; preds = %24
  br label %26

26:                                               ; preds = %25
  call void @llvm.lifetime.start.p0(i64 8, ptr %5) #10
  br label %27

27:                                               ; preds = %31, %26
  %28 = load ptr, ptr %4, align 8, !tbaa !131
  %29 = call ptr @g_dir_read_name(ptr noundef %28)
  store ptr %29, ptr %5, align 8, !tbaa !73
  %30 = icmp ne ptr %29, null
  br i1 %30, label %31, label %36

31:                                               ; preds = %27
  %32 = load ptr, ptr getelementptr inbounds nuw (%struct.darktable_t, ptr @darktable, i32 0, i32 52), align 8, !tbaa !96
  %33 = load ptr, ptr %5, align 8, !tbaa !73
  %34 = call noalias ptr @g_strdup(ptr noundef %33)
  %35 = call ptr @g_list_append(ptr noundef %32, ptr noundef %34)
  store ptr %35, ptr getelementptr inbounds nuw (%struct.darktable_t, ptr @darktable, i32 0, i32 52), align 8, !tbaa !96
  br label %27

36:                                               ; preds = %27
  %37 = load ptr, ptr %4, align 8, !tbaa !131
  call void @g_dir_close(ptr noundef %37)
  call void @llvm.lifetime.end.p0(i64 8, ptr %5) #10
  br label %38

38:                                               ; preds = %36, %1
  %39 = load ptr, ptr %3, align 8, !tbaa !73
  call void @g_free(ptr noundef %39)
  call void @llvm.lifetime.end.p0(i64 8, ptr %4) #10
  call void @llvm.lifetime.end.p0(i64 8, ptr %3) #10
  ret void
}