; Function Attrs: nounwind uwtable
define internal fastcc void @load_themes_dir(ptr noundef nonnull %0) unnamed_addr #0 {
  %2 = tail call noalias ptr (ptr, ...) @g_build_filename(ptr noundef nonnull %0, ptr noundef nonnull @.str.88, ptr noundef null) #12
  %3 = tail call ptr @g_dir_open(ptr noundef %2, i32 noundef 0, ptr noundef null) #12
  %.not = icmp eq ptr %3, null
  br i1 %.not, label %15, label %4

4:                                                ; preds = %1
  %5 = load i32, ptr getelementptr inbounds nuw (i8, ptr @darktable, i64 8), align 8, !tbaa !78
  %6 = and i32 %5, 4
  %.not9 = icmp eq i32 %6, 0
  br i1 %.not9, label %8, label %7

7:                                                ; preds = %4
  tail call void (ptr, ...) @dt_print_ext(ptr noundef nonnull @.str.89, ptr noundef %2) #12
  br label %8

8:                                                ; preds = %7, %4
  %9 = tail call ptr @g_dir_read_name(ptr noundef nonnull %3) #12
  %.not1011 = icmp eq ptr %9, null
  br i1 %.not1011, label %._crit_edge, label %.lr.ph

.lr.ph:                                           ; preds = %8, %.lr.ph
  %10 = phi ptr [ %14, %.lr.ph ], [ %9, %8 ]
  %11 = load ptr, ptr getelementptr inbounds nuw (i8, ptr @darktable, i64 3120), align 8, !tbaa !68
  %12 = tail call noalias ptr @g_strdup(ptr noundef nonnull %10) #12
  %13 = tail call ptr @g_list_append(ptr noundef %11, ptr noundef %12) #12
  store ptr %13, ptr getelementptr inbounds nuw (i8, ptr @darktable, i64 3120), align 8, !tbaa !68
  %14 = tail call ptr @g_dir_read_name(ptr noundef nonnull %3) #12
  %.not10 = icmp eq ptr %14, null
  br i1 %.not10, label %._crit_edge, label %.lr.ph

._crit_edge:                                      ; preds = %.lr.ph, %8
  tail call void @g_dir_close(ptr noundef nonnull %3) #12
  br label %15

15:                                               ; preds = %._crit_edge, %1
  tail call void @g_free(ptr noundef %2) #12
  ret void
}